target datalayout = "e-m:e-p270:32:32-p271:32:32-p272:64:64-i64:64-i128:128-f80:128-n8:16:32:64-S128"
target triple = "x86_64-pc-linux-gnu"

@bench_size = internal global i32 1048576, align 4
@numBlocks = internal global i32 5, align 4

; Function Attrs: nounwind uwtable
define dso_local void @benchmark_configure(i32 noundef %0) #0 {
  %2 = alloca i32, align 4
  store i32 %0, ptr %2, align 4, !tbaa !4
  %3 = load i32, ptr %2, align 4, !tbaa !4
  %4 = icmp ugt i32 %3, 0
  br i1 %4, label %5, label %12

5:                                                ; preds = %1
  %6 = load i32, ptr @numBlocks, align 4, !tbaa !4
  %7 = load i32, ptr @bench_size, align 4, !tbaa !4
  %8 = mul i32 %6, %7
  %9 = load i32, ptr %2, align 4, !tbaa !4
  %10 = udiv i32 %8, %9
  store i32 %10, ptr @numBlocks, align 4, !tbaa !4
  %11 = load i32, ptr %2, align 4, !tbaa !4
  store i32 %11, ptr @bench_size, align 4, !tbaa !4
  br label %12

12:                                               ; preds = %5, %1
  ret void
}