; Function Attrs: mustprogress nofree norecurse nosync nounwind willreturn memory(readwrite, argmem: none, inaccessiblemem: none) uwtable
define dso_local void @benchmark_configure(i32 noundef %0) local_unnamed_addr #11 {
  %.not = icmp eq i32 %0, 0
  br i1 %.not, label %7, label %2

2:                                                ; preds = %1
  %3 = load i32, ptr @numBlocks, align 4, !tbaa !4
  %4 = load i32, ptr @bench_size, align 4, !tbaa !4
  %5 = mul i32 %4, %3
  %6 = udiv i32 %5, %0
  store i32 %6, ptr @numBlocks, align 4, !tbaa !4
  store i32 %0, ptr @bench_size, align 4, !tbaa !4
  br label %7

7:                                                ; preds = %2, %1
  ret void
}